; ModuleID = 'bench/clamav/original/hostid.c.ll'
source_filename = "bench/clamav/original/hostid.c.ll"
target datalayout = "e-m:e-p270:32:32-p271:32:32-p272:64:64-i64:64-i128:128-f80:128-n8:16:32:64-S128"
target triple = "x86_64-pc-linux-gnu"

@hostid = global [37 x i8] zeroinitializer, align 16
@.str = private unnamed_addr constant [5 x i8] c"none\00", align 1
@.str.1 = private unnamed_addr constant [37 x i8] c"5b585e8f-3be5-11e3-bf0b-18037319526c\00", align 1
@.str.2 = private unnamed_addr constant [21 x i8] c"HostID is valid: %s\0A\00", align 1

; Function Attrs: nofree nounwind memory(read, argmem: none, inaccessiblemem: none) uwtable
define i32 @is_valid_hostid() local_unnamed_addr #0 {
  %1 = tail call i64 @strlen(ptr noundef nonnull dereferenceable(1) @hostid) #6
  %.not = icmp eq i64 %1, 36
  br i1 %.not, label %.preheader, label %16

.preheader:                                       ; preds = %0, %.preheader
  %indvars.iv = phi i64 [ %indvars.iv.next, %.preheader ], [ 0, %0 ]
  %.01423 = phi i32 [ %spec.select, %.preheader ], [ 0, %0 ]
  %2 = getelementptr inbounds [37 x i8], ptr @hostid, i64 0, i64 %indvars.iv
  %3 = load i8, ptr %2, align 1
  %4 = icmp eq i8 %3, 45
  %5 = zext i1 %4 to i32
  %spec.select = add nuw nsw i32 %.01423, %5
  %indvars.iv.next = add nuw nsw i64 %indvars.iv, 1
  %exitcond.not = icmp eq i64 %indvars.iv.next, 36
  br i1 %exitcond.not, label %6, label %.preheader

6:                                                ; preds = %.preheader
  %.not16 = icmp eq i32 %spec.select, 4
  br i1 %.not16, label %7, label %16

7:                                                ; preds = %6
  %8 = load i8, ptr getelementptr inbounds ([37 x i8], ptr @hostid, i64 0, i64 8), align 8
  %9 = icmp eq i8 %8, 45
  %10 = load i8, ptr getelementptr inbounds ([37 x i8], ptr @hostid, i64 0, i64 13), align 1
  %11 = icmp eq i8 %10, 45
  %or.cond.not22 = select i1 %9, i1 %11, i1 false
  %12 = load i8, ptr getelementptr inbounds ([37 x i8], ptr @hostid, i64 0, i64 18), align 2
  %13 = icmp eq i8 %12, 45
  %or.cond5.not19 = select i1 %or.cond.not22, i1 %13, i1 false
  %14 = load i8, ptr getelementptr inbounds ([37 x i8], ptr @hostid, i64 0, i64 23), align 1
  %15 = icmp eq i8 %14, 45
  %or.cond8.not = select i1 %or.cond5.not19, i1 %15, i1 false
  %. = zext i1 %or.cond8.not to i32
  br label %16

16:                                               ; preds = %7, %6, %0
  %.015 = phi i32 [ 0, %0 ], [ 0, %6 ], [ %., %7 ]
  ret i32 %.015
}

; Function Attrs: mustprogress nofree nounwind willreturn memory(argmem: read)
declare i64 @strlen(ptr nocapture noundef) local_unnamed_addr #1

; Function Attrs: nounwind uwtable
define noalias ptr @get_hostid(ptr nocapture noundef readnone %0) local_unnamed_addr #2 {
  %bcmp = tail call i32 @bcmp(ptr noundef nonnull dereferenceable(5) @hostid, ptr noundef nonnull dereferenceable(5) @.str, i64 5)
  %.not = icmp eq i32 %bcmp, 0
  br i1 %.not, label %21, label %2

2:                                                ; preds = %1
  %3 = tail call i64 @strlen(ptr noundef nonnull dereferenceable(1) @hostid) #6
  %.not.i = icmp eq i64 %3, 36
  br i1 %.not.i, label %.preheader.i, label %is_valid_hostid.exit.thread

.preheader.i:                                     ; preds = %2, %.preheader.i
  %indvars.iv.i = phi i64 [ %indvars.iv.next.i, %.preheader.i ], [ 0, %2 ]
  %.01423.i = phi i32 [ %spec.select.i, %.preheader.i ], [ 0, %2 ]
  %4 = getelementptr inbounds [37 x i8], ptr @hostid, i64 0, i64 %indvars.iv.i
  %5 = load i8, ptr %4, align 1
  %6 = icmp eq i8 %5, 45
  %7 = zext i1 %6 to i32
  %spec.select.i = add nuw nsw i32 %.01423.i, %7
  %indvars.iv.next.i = add nuw nsw i64 %indvars.iv.i, 1
  %exitcond.not.i = icmp eq i64 %indvars.iv.next.i, 36
  br i1 %exitcond.not.i, label %8, label %.preheader.i

8:                                                ; preds = %.preheader.i
  %.not16.i = icmp eq i32 %spec.select.i, 4
  br i1 %.not16.i, label %is_valid_hostid.exit, label %is_valid_hostid.exit.thread

is_valid_hostid.exit:                             ; preds = %8
  %9 = load i8, ptr getelementptr inbounds ([37 x i8], ptr @hostid, i64 0, i64 8), align 8
  %10 = icmp ne i8 %9, 45
  %11 = load i8, ptr getelementptr inbounds ([37 x i8], ptr @hostid, i64 0, i64 13), align 1
  %12 = icmp ne i8 %11, 45
  %or.cond.not22.i.not9 = select i1 %10, i1 true, i1 %12
  %13 = load i8, ptr getelementptr inbounds ([37 x i8], ptr @hostid, i64 0, i64 18), align 2
  %14 = icmp ne i8 %13, 45
  %or.cond5.not19.i.not6 = select i1 %or.cond.not22.i.not9, i1 true, i1 %14
  %15 = load i8, ptr getelementptr inbounds ([37 x i8], ptr @hostid, i64 0, i64 23), align 1
  %16 = icmp ne i8 %15, 45
  %or.cond8.not.i.not = select i1 %or.cond5.not19.i.not6, i1 true, i1 %16
  br i1 %or.cond8.not.i.not, label %is_valid_hostid.exit.thread, label %18

is_valid_hostid.exit.thread:                      ; preds = %8, %2, %is_valid_hostid.exit
  %17 = tail call noalias dereferenceable_or_null(37) ptr @strdup(ptr noundef nonnull @.str.1) #7
  br label %21

18:                                               ; preds = %is_valid_hostid.exit
  %19 = tail call i32 (i32, ptr, ...) @logg(i32 noundef 0, ptr noundef nonnull @.str.2, ptr noundef nonnull @hostid) #7
  %20 = tail call noalias ptr @strdup(ptr noundef nonnull @hostid) #7
  br label %21

21:                                               ; preds = %1, %18, %is_valid_hostid.exit.thread
  %.0 = phi ptr [ %20, %18 ], [ %17, %is_valid_hostid.exit.thread ], [ null, %1 ]
  ret ptr %.0
}

; Function Attrs: mustprogress nofree nounwind willreturn memory(argmem: readwrite, inaccessiblemem: readwrite)
declare noalias ptr @strdup(ptr nocapture noundef readonly) local_unnamed_addr #3

declare i32 @logg(i32 noundef, ptr noundef, ...) local_unnamed_addr #4

; Function Attrs: nofree nounwind willreturn memory(argmem: read)
declare i32 @bcmp(ptr nocapture, ptr nocapture, i64) local_unnamed_addr #5


!llvm.module.flags = !{!0, !1, !2, !3}

!0 = !{i32 1, !"wchar_size", i32 4}
!1 = !{i32 8, !"PIC Level", i32 2}
!2 = !{i32 7, !"uwtable", i32 2}
!3 = !{i32 7, !"frame-pointer", i32 2}
